target datalayout = "e-m:e-p270:32:32-p271:32:32-p272:64:64-i64:64-i128:128-f80:128-n8:16:32:64-S128"
target triple = "x86_64-pc-linux-gnu"

%struct.btLCP = type { i32, i32, i32, i32, i32, ptr, ptr, ptr, ptr, ptr, ptr, ptr, ptr, ptr, ptr, ptr, ptr, ptr, ptr, ptr }

; Function Attrs: inlinehint mustprogress nounwind uwtable
define linkonce_odr dso_local noundef float @_Z10btLargeDotPKfS0_i(ptr noundef %0, ptr noundef %1, i32 noundef %2) #5 comdat {
  %4 = alloca ptr, align 8
  %5 = alloca ptr, align 8
  %6 = alloca i32, align 4
  %7 = alloca float, align 4
  %8 = alloca float, align 4
  %9 = alloca float, align 4
  %10 = alloca float, align 4
  %11 = alloca float, align 4
  %12 = alloca float, align 4
  %13 = alloca float, align 4
  store ptr %0, ptr %4, align 8, !tbaa !12
  store ptr %1, ptr %5, align 8, !tbaa !12
  store i32 %2, ptr %6, align 4, !tbaa !9
  call void @llvm.lifetime.start.p0(i64 4, ptr %7) #9
  call void @llvm.lifetime.start.p0(i64 4, ptr %8) #9
  call void @llvm.lifetime.start.p0(i64 4, ptr %9) #9
  call void @llvm.lifetime.start.p0(i64 4, ptr %10) #9
  call void @llvm.lifetime.start.p0(i64 4, ptr %11) #9
  call void @llvm.lifetime.start.p0(i64 4, ptr %12) #9
  call void @llvm.lifetime.start.p0(i64 4, ptr %13) #9
  store float 0.000000e+00, ptr %13, align 4, !tbaa !14
  %14 = load i32, ptr %6, align 4, !tbaa !9
  %15 = sub nsw i32 %14, 2
  store i32 %15, ptr %6, align 4, !tbaa !9
  br label %16

16:                                               ; preds = %19, %3
  %17 = load i32, ptr %6, align 4, !tbaa !9
  %18 = icmp sge i32 %17, 0
  br i1 %18, label %19, label %50

19:                                               ; preds = %16
  %20 = load ptr, ptr %4, align 8, !tbaa !12
  %21 = getelementptr inbounds float, ptr %20, i64 0
  %22 = load float, ptr %21, align 4, !tbaa !14
  store float %22, ptr %7, align 4, !tbaa !14
  %23 = load ptr, ptr %5, align 8, !tbaa !12
  %24 = getelementptr inbounds float, ptr %23, i64 0
  %25 = load float, ptr %24, align 4, !tbaa !14
  store float %25, ptr %8, align 4, !tbaa !14
  %26 = load float, ptr %7, align 4, !tbaa !14
  %27 = load float, ptr %8, align 4, !tbaa !14
  %28 = fmul float %26, %27
  store float %28, ptr %9, align 4, !tbaa !14
  %29 = load ptr, ptr %4, align 8, !tbaa !12
  %30 = getelementptr inbounds float, ptr %29, i64 1
  %31 = load float, ptr %30, align 4, !tbaa !14
  store float %31, ptr %10, align 4, !tbaa !14
  %32 = load ptr, ptr %5, align 8, !tbaa !12
  %33 = getelementptr inbounds float, ptr %32, i64 1
  %34 = load float, ptr %33, align 4, !tbaa !14
  store float %34, ptr %11, align 4, !tbaa !14
  %35 = load float, ptr %10, align 4, !tbaa !14
  %36 = load float, ptr %11, align 4, !tbaa !14
  %37 = fmul float %35, %36
  store float %37, ptr %12, align 4, !tbaa !14
  %38 = load float, ptr %9, align 4, !tbaa !14
  %39 = load float, ptr %13, align 4, !tbaa !14
  %40 = fadd float %39, %38
  store float %40, ptr %13, align 4, !tbaa !14
  %41 = load float, ptr %12, align 4, !tbaa !14
  %42 = load float, ptr %13, align 4, !tbaa !14
  %43 = fadd float %42, %41
  store float %43, ptr %13, align 4, !tbaa !14
  %44 = load ptr, ptr %4, align 8, !tbaa !12
  %45 = getelementptr inbounds float, ptr %44, i64 2
  store ptr %45, ptr %4, align 8, !tbaa !12
  %46 = load ptr, ptr %5, align 8, !tbaa !12
  %47 = getelementptr inbounds float, ptr %46, i64 2
  store ptr %47, ptr %5, align 8, !tbaa !12
  %48 = load i32, ptr %6, align 4, !tbaa !9
  %49 = sub nsw i32 %48, 2
  store i32 %49, ptr %6, align 4, !tbaa !9
  br label %16, !llvm.loop !84

50:                                               ; preds = %16
  %51 = load i32, ptr %6, align 4, !tbaa !9
  %52 = add nsw i32 %51, 2
  store i32 %52, ptr %6, align 4, !tbaa !9
  br label %53

53:                                               ; preds = %56, %50
  %54 = load i32, ptr %6, align 4, !tbaa !9
  %55 = icmp sgt i32 %54, 0
  br i1 %55, label %56, label %69

56:                                               ; preds = %53
  %57 = load ptr, ptr %4, align 8, !tbaa !12
  %58 = load float, ptr %57, align 4, !tbaa !14
  %59 = load ptr, ptr %5, align 8, !tbaa !12
  %60 = load float, ptr %59, align 4, !tbaa !14
  %61 = load float, ptr %13, align 4, !tbaa !14
  %62 = call float @llvm.fmuladd.f32(float %58, float %60, float %61)
  store float %62, ptr %13, align 4, !tbaa !14
  %63 = load ptr, ptr %4, align 8, !tbaa !12
  %64 = getelementptr inbounds nuw float, ptr %63, i32 1
  store ptr %64, ptr %4, align 8, !tbaa !12
  %65 = load ptr, ptr %5, align 8, !tbaa !12
  %66 = getelementptr inbounds nuw float, ptr %65, i32 1
  store ptr %66, ptr %5, align 8, !tbaa !12
  %67 = load i32, ptr %6, align 4, !tbaa !9
  %68 = add nsw i32 %67, -1
  store i32 %68, ptr %6, align 4, !tbaa !9
  br label %53, !llvm.loop !85

69:                                               ; preds = %53
  %70 = load float, ptr %13, align 4, !tbaa !14
  call void @llvm.lifetime.end.p0(i64 4, ptr %13) #9
  call void @llvm.lifetime.end.p0(i64 4, ptr %12) #9
  call void @llvm.lifetime.end.p0(i64 4, ptr %11) #9
  call void @llvm.lifetime.end.p0(i64 4, ptr %10) #9
  call void @llvm.lifetime.end.p0(i64 4, ptr %9) #9
  call void @llvm.lifetime.end.p0(i64 4, ptr %8) #9
  call void @llvm.lifetime.end.p0(i64 4, ptr %7) #9
  ret float %70
}

; Function Attrs: mustprogress uwtable
define dso_local void @_ZN5btLCP22pN_equals_ANC_times_qCEPfS0_(ptr noundef nonnull align 8 dereferenceable(144) %0, ptr noundef %1, ptr noundef %2) #2 align 2 {
  %4 = alloca ptr, align 8
  %5 = alloca ptr, align 8
  %6 = alloca ptr, align 8
  %7 = alloca i32, align 4
  %8 = alloca ptr, align 8
  %9 = alloca i32, align 4
  %10 = alloca i32, align 4
  store ptr %0, ptr %4, align 8, !tbaa !41
  store ptr %1, ptr %5, align 8, !tbaa !12
  store ptr %2, ptr %6, align 8, !tbaa !12
  %11 = load ptr, ptr %4, align 8
  call void @llvm.lifetime.start.p0(i64 4, ptr %7) #9
  %12 = getelementptr inbounds nuw %struct.btLCP, ptr %11, i32 0, i32 3
  %13 = load i32, ptr %12, align 4, !tbaa !53
  store i32 %13, ptr %7, align 4, !tbaa !9
  call void @llvm.lifetime.start.p0(i64 8, ptr %8) #9
  %14 = load ptr, ptr %5, align 8, !tbaa !12
  %15 = load i32, ptr %7, align 4, !tbaa !9
  %16 = sext i32 %15 to i64
  %17 = getelementptr inbounds float, ptr %14, i64 %16
  store ptr %17, ptr %8, align 8, !tbaa !12
  call void @llvm.lifetime.start.p0(i64 4, ptr %9) #9
  %18 = getelementptr inbounds nuw %struct.btLCP, ptr %11, i32 0, i32 4
  %19 = load i32, ptr %18, align 8, !tbaa !54
  store i32 %19, ptr %9, align 4, !tbaa !9
  call void @llvm.lifetime.start.p0(i64 4, ptr %10) #9
  store i32 0, ptr %10, align 4, !tbaa !9
  br label %20

20:                                               ; preds = %41, %3
  %21 = load i32, ptr %10, align 4, !tbaa !9
  %22 = load i32, ptr %9, align 4, !tbaa !9
  %23 = icmp slt i32 %21, %22
  br i1 %23, label %25, label %24

24:                                               ; preds = %20
  call void @llvm.lifetime.end.p0(i64 4, ptr %10) #9
  br label %44

25:                                               ; preds = %20
  %26 = getelementptr inbounds nuw %struct.btLCP, ptr %11, i32 0, i32 5
  %27 = load ptr, ptr %26, align 8, !tbaa !55
  %28 = load i32, ptr %10, align 4, !tbaa !9
  %29 = load i32, ptr %7, align 4, !tbaa !9
  %30 = add nsw i32 %28, %29
  %31 = sext i32 %30 to i64
  %32 = getelementptr inbounds ptr, ptr %27, i64 %31
  %33 = load ptr, ptr %32, align 8, !tbaa !12
  %34 = load ptr, ptr %6, align 8, !tbaa !12
  %35 = load i32, ptr %7, align 4, !tbaa !9
  %36 = call noundef float @_Z10btLargeDotPKfS0_i(ptr noundef %33, ptr noundef %34, i32 noundef %35)
  %37 = load ptr, ptr %8, align 8, !tbaa !12
  %38 = load i32, ptr %10, align 4, !tbaa !9
  %39 = sext i32 %38 to i64
  %40 = getelementptr inbounds float, ptr %37, i64 %39
  store float %36, ptr %40, align 4, !tbaa !14
  br label %41

41:                                               ; preds = %25
  %42 = load i32, ptr %10, align 4, !tbaa !9
  %43 = add nsw i32 %42, 1
  store i32 %43, ptr %10, align 4, !tbaa !9
  br label %20, !llvm.loop !109

44:                                               ; preds = %24
  call void @llvm.lifetime.end.p0(i64 4, ptr %9) #9
  call void @llvm.lifetime.end.p0(i64 8, ptr %8) #9
  call void @llvm.lifetime.end.p0(i64 4, ptr %7) #9
  ret void
}