; Function Attrs: mustprogress nofree norecurse nosync nounwind memory(read, argmem: readwrite, inaccessiblemem: none) uwtable
define dso_local void @_ZN5btLCP22pN_equals_ANC_times_qCEPfS0_(ptr noundef nonnull readonly align 8 captures(none) dereferenceable(144) %0, ptr noundef writeonly captures(none) %1, ptr noundef readonly captures(none) %2) local_unnamed_addr #6 align 2 {
  %4 = getelementptr inbounds nuw i8, ptr %0, i64 12
  %5 = load i32, ptr %4, align 4, !tbaa !41
  %6 = sext i32 %5 to i64
  %7 = getelementptr float, ptr %1, i64 %6
  %8 = getelementptr inbounds nuw i8, ptr %0, i64 16
  %9 = load i32, ptr %8, align 8, !tbaa !42
  %10 = icmp sgt i32 %9, 0
  br i1 %10, label %.lr.ph, label %._crit_edge

.lr.ph:                                           ; preds = %3
  %11 = getelementptr inbounds nuw i8, ptr %0, i64 24
  %12 = load ptr, ptr %11, align 8, !tbaa !43
  %.02931.i = add i32 %5, -2
  %13 = icmp sgt i32 %5, 1
  br i1 %13, label %.lr.ph.split.us, label %.lr.ph.split

.lr.ph.split.us:                                  ; preds = %.lr.ph
  %14 = add nsw i32 %5, -4
  %15 = and i32 %.02931.i, -2
  %16 = sub nsw i32 %14, %15
  %17 = icmp eq i32 %16, -1
  %18 = zext nneg i32 %5 to i64
  %wide.trip.count35 = zext nneg i32 %9 to i64
  %invariant.gep44 = getelementptr inbounds nuw ptr, ptr %12, i64 %18
  br i1 %17, label %.lr.ph.preheader.i.us.us, label %.lr.ph.preheader.i.us

.lr.ph.preheader.i.us.us:                         ; preds = %.lr.ph.split.us, %._crit_edge.loopexit.i.us.us
  %indvars.iv32 = phi i64 [ %indvars.iv.next33, %._crit_edge.loopexit.i.us.us ], [ 0, %.lr.ph.split.us ]
  %gep45 = getelementptr inbounds nuw ptr, ptr %invariant.gep44, i64 %indvars.iv32
  %19 = load ptr, ptr %gep45, align 8, !tbaa !58
  br label %.lr.ph.i.us.us

.lr.ph.i.us.us:                                   ; preds = %.lr.ph.i.us.us, %.lr.ph.preheader.i.us.us
  %.02935.i.us.us = phi i32 [ %.029.i.us.us, %.lr.ph.i.us.us ], [ %.02931.i, %.lr.ph.preheader.i.us.us ]
  %.034.i.us.us = phi float [ %29, %.lr.ph.i.us.us ], [ 0.000000e+00, %.lr.ph.preheader.i.us.us ]
  %.02533.i.us.us = phi ptr [ %30, %.lr.ph.i.us.us ], [ %19, %.lr.ph.preheader.i.us.us ]
  %.02732.i.us.us = phi ptr [ %31, %.lr.ph.i.us.us ], [ %2, %.lr.ph.preheader.i.us.us ]
  %20 = load float, ptr %.02533.i.us.us, align 4, !tbaa !4
  %21 = load float, ptr %.02732.i.us.us, align 4, !tbaa !4
  %22 = fmul float %20, %21
  %23 = getelementptr inbounds nuw i8, ptr %.02533.i.us.us, i64 4
  %24 = load float, ptr %23, align 4, !tbaa !4
  %25 = getelementptr inbounds nuw i8, ptr %.02732.i.us.us, i64 4
  %26 = load float, ptr %25, align 4, !tbaa !4
  %27 = fmul float %24, %26
  %28 = fadd float %.034.i.us.us, %22
  %29 = fadd float %28, %27
  %30 = getelementptr inbounds nuw i8, ptr %.02533.i.us.us, i64 8
  %31 = getelementptr inbounds nuw i8, ptr %.02732.i.us.us, i64 8
  %.029.i.us.us = add nsw i32 %.02935.i.us.us, -2
  %32 = icmp samesign ugt i32 %.02935.i.us.us, 1
  br i1 %32, label %.lr.ph.i.us.us, label %._crit_edge.loopexit.i.us.us, !llvm.loop !73

._crit_edge.loopexit.i.us.us:                     ; preds = %.lr.ph.i.us.us
  %33 = load float, ptr %30, align 4, !tbaa !4
  %34 = load float, ptr %31, align 4, !tbaa !4
  %35 = tail call float @llvm.fmuladd.f32(float %33, float %34, float %29)
  %36 = getelementptr inbounds nuw float, ptr %7, i64 %indvars.iv32
  store float %35, ptr %36, align 4, !tbaa !4
  %indvars.iv.next33 = add nuw nsw i64 %indvars.iv32, 1
  %exitcond36.not = icmp eq i64 %indvars.iv.next33, %wide.trip.count35
  br i1 %exitcond36.not, label %._crit_edge, label %.lr.ph.preheader.i.us.us, !llvm.loop !97

.lr.ph.preheader.i.us:                            ; preds = %.lr.ph.split.us, %._crit_edge.loopexit.i.us
  %indvars.iv27 = phi i64 [ %indvars.iv.next28, %._crit_edge.loopexit.i.us ], [ 0, %.lr.ph.split.us ]
  %gep43 = getelementptr inbounds nuw ptr, ptr %invariant.gep44, i64 %indvars.iv27
  %37 = load ptr, ptr %gep43, align 8, !tbaa !58
  br label %.lr.ph.i.us

.lr.ph.i.us:                                      ; preds = %.lr.ph.i.us, %.lr.ph.preheader.i.us
  %.02935.i.us = phi i32 [ %.029.i.us, %.lr.ph.i.us ], [ %.02931.i, %.lr.ph.preheader.i.us ]
  %.034.i.us = phi float [ %47, %.lr.ph.i.us ], [ 0.000000e+00, %.lr.ph.preheader.i.us ]
  %.02533.i.us = phi ptr [ %48, %.lr.ph.i.us ], [ %37, %.lr.ph.preheader.i.us ]
  %.02732.i.us = phi ptr [ %49, %.lr.ph.i.us ], [ %2, %.lr.ph.preheader.i.us ]
  %38 = load float, ptr %.02533.i.us, align 4, !tbaa !4
  %39 = load float, ptr %.02732.i.us, align 4, !tbaa !4
  %40 = fmul float %38, %39
  %41 = getelementptr inbounds nuw i8, ptr %.02533.i.us, i64 4
  %42 = load float, ptr %41, align 4, !tbaa !4
  %43 = getelementptr inbounds nuw i8, ptr %.02732.i.us, i64 4
  %44 = load float, ptr %43, align 4, !tbaa !4
  %45 = fmul float %42, %44
  %46 = fadd float %.034.i.us, %40
  %47 = fadd float %46, %45
  %48 = getelementptr inbounds nuw i8, ptr %.02533.i.us, i64 8
  %49 = getelementptr inbounds nuw i8, ptr %.02732.i.us, i64 8
  %.029.i.us = add nsw i32 %.02935.i.us, -2
  %50 = icmp samesign ugt i32 %.02935.i.us, 1
  br i1 %50, label %.lr.ph.i.us, label %._crit_edge.loopexit.i.us, !llvm.loop !73

._crit_edge.loopexit.i.us:                        ; preds = %.lr.ph.i.us
  %51 = getelementptr inbounds nuw float, ptr %7, i64 %indvars.iv27
  store float %47, ptr %51, align 4, !tbaa !4
  %indvars.iv.next28 = add nuw nsw i64 %indvars.iv27, 1
  %exitcond31.not = icmp eq i64 %indvars.iv.next28, %wide.trip.count35
  br i1 %exitcond31.not, label %._crit_edge, label %.lr.ph.preheader.i.us, !llvm.loop !97

.lr.ph.split:                                     ; preds = %.lr.ph
  %52 = icmp eq i32 %.02931.i, -1
  %wide.trip.count = zext nneg i32 %9 to i64
  br i1 %52, label %._crit_edge.i.us14.preheader, label %._crit_edge.i.preheader

._crit_edge.i.preheader:                          ; preds = %.lr.ph.split
  %53 = shl nuw nsw i64 %wide.trip.count, 2
  tail call void @llvm.memset.p0.i64(ptr align 4 %7, i8 0, i64 %53, i1 false), !tbaa !4
  br label %._crit_edge

._crit_edge.i.us14.preheader:                     ; preds = %.lr.ph.split
  %invariant.gep = getelementptr ptr, ptr %12, i64 %6
  br label %._crit_edge.i.us14

._crit_edge.i.us14:                               ; preds = %._crit_edge.i.us14.preheader, %._crit_edge.i.us14
  %indvars.iv = phi i64 [ 0, %._crit_edge.i.us14.preheader ], [ %indvars.iv.next, %._crit_edge.i.us14 ]
  %gep = getelementptr ptr, ptr %invariant.gep, i64 %indvars.iv
  %54 = load ptr, ptr %gep, align 8, !tbaa !58
  %55 = load float, ptr %54, align 4, !tbaa !4
  %56 = load float, ptr %2, align 4, !tbaa !4
  %57 = tail call float @llvm.fmuladd.f32(float %55, float %56, float 0.000000e+00)
  %58 = getelementptr inbounds nuw float, ptr %7, i64 %indvars.iv
  store float %57, ptr %58, align 4, !tbaa !4
  %indvars.iv.next = add nuw nsw i64 %indvars.iv, 1
  %exitcond.not = icmp eq i64 %indvars.iv.next, %wide.trip.count
  br i1 %exitcond.not, label %._crit_edge, label %._crit_edge.i.us14, !llvm.loop !97

._crit_edge:                                      ; preds = %._crit_edge.i.us14, %._crit_edge.loopexit.i.us, %._crit_edge.loopexit.i.us.us, %._crit_edge.i.preheader, %3
  ret void
}